target datalayout = "e-m:e-p270:32:32-p271:32:32-p272:64:64-i64:64-i128:128-f80:128-n8:16:32:64-S128"
target triple = "x86_64-pc-linux-gnu"

%"class.pxrInternal_v0_24__pxrReserved__::GfMatrix4f" = type { %"class.pxrInternal_v0_24__pxrReserved__::GfMatrixData" }
%"class.pxrInternal_v0_24__pxrReserved__::GfMatrixData" = type { [16 x float] }
%"class.pxrInternal_v0_24__pxrReserved__::GfMatrix4d" = type { %"class.pxrInternal_v0_24__pxrReserved__::GfMatrixData.0" }
%"class.pxrInternal_v0_24__pxrReserved__::GfMatrixData.0" = type { [16 x double] }

; Function Attrs: mustprogress nounwind uwtable
define linkonce_odr noundef ptr @_ZNK32pxrInternal_v0_24__pxrReserved__12GfMatrixDataIdLi4ELi4EEixEi(ptr noundef nonnull align 8 dereferenceable(128) %0, i32 noundef %1) #2 comdat align 2 {
  %3 = alloca ptr, align 8
  %4 = alloca i32, align 4
  store ptr %0, ptr %3, align 8
  store i32 %1, ptr %4, align 4
  %5 = load ptr, ptr %3, align 8
  %6 = getelementptr inbounds nuw %"class.pxrInternal_v0_24__pxrReserved__::GfMatrixData.0", ptr %5, i32 0, i32 0
  %7 = getelementptr inbounds [16 x double], ptr %6, i64 0, i64 0
  %8 = load i32, ptr %4, align 4
  %9 = mul nsw i32 %8, 4
  %10 = sext i32 %9 to i64
  %11 = getelementptr inbounds double, ptr %7, i64 %10
  ret ptr %11
}

; Function Attrs: mustprogress nounwind uwtable
define linkonce_odr noundef ptr @_ZNK32pxrInternal_v0_24__pxrReserved__12GfMatrixDataIfLi4ELi4EEixEi(ptr noundef nonnull align 4 dereferenceable(64) %0, i32 noundef %1) #2 comdat align 2 {
  %3 = alloca ptr, align 8
  %4 = alloca i32, align 4
  store ptr %0, ptr %3, align 8
  store i32 %1, ptr %4, align 4
  %5 = load ptr, ptr %3, align 8
  %6 = getelementptr inbounds nuw %"class.pxrInternal_v0_24__pxrReserved__::GfMatrixData", ptr %5, i32 0, i32 0
  %7 = getelementptr inbounds [16 x float], ptr %6, i64 0, i64 0
  %8 = load i32, ptr %4, align 4
  %9 = mul nsw i32 %8, 4
  %10 = sext i32 %9 to i64
  %11 = getelementptr inbounds float, ptr %7, i64 %10
  ret ptr %11
}

; Function Attrs: mustprogress uwtable
define noundef zeroext i1 @_ZNK32pxrInternal_v0_24__pxrReserved__10GfMatrix4feqERKNS_10GfMatrix4dE(ptr noundef nonnull align 4 dereferenceable(64) %0, ptr noundef nonnull align 8 dereferenceable(128) %1) #0 align 2 {
  %3 = alloca ptr, align 8
  %4 = alloca ptr, align 8
  store ptr %0, ptr %3, align 8
  store ptr %1, ptr %4, align 8
  %5 = load ptr, ptr %3, align 8
  %6 = getelementptr inbounds nuw %"class.pxrInternal_v0_24__pxrReserved__::GfMatrix4f", ptr %5, i32 0, i32 0
  %7 = call noundef ptr @_ZNK32pxrInternal_v0_24__pxrReserved__12GfMatrixDataIfLi4ELi4EEixEi(ptr noundef nonnull align 4 dereferenceable(64) %6, i32 noundef 0)
  %8 = getelementptr inbounds float, ptr %7, i64 0
  %9 = load float, ptr %8, align 4
  %10 = fpext float %9 to double
  %11 = load ptr, ptr %4, align 8
  %12 = getelementptr inbounds nuw %"class.pxrInternal_v0_24__pxrReserved__::GfMatrix4d", ptr %11, i32 0, i32 0
  %13 = call noundef ptr @_ZNK32pxrInternal_v0_24__pxrReserved__12GfMatrixDataIdLi4ELi4EEixEi(ptr noundef nonnull align 8 dereferenceable(128) %12, i32 noundef 0)
  %14 = getelementptr inbounds double, ptr %13, i64 0
  %15 = load double, ptr %14, align 8
  %16 = fcmp oeq double %10, %15
  br i1 %16, label %17, label %197

17:                                               ; preds = %2
  %18 = getelementptr inbounds nuw %"class.pxrInternal_v0_24__pxrReserved__::GfMatrix4f", ptr %5, i32 0, i32 0
  %19 = call noundef ptr @_ZNK32pxrInternal_v0_24__pxrReserved__12GfMatrixDataIfLi4ELi4EEixEi(ptr noundef nonnull align 4 dereferenceable(64) %18, i32 noundef 0)
  %20 = getelementptr inbounds float, ptr %19, i64 1
  %21 = load float, ptr %20, align 4
  %22 = fpext float %21 to double
  %23 = load ptr, ptr %4, align 8
  %24 = getelementptr inbounds nuw %"class.pxrInternal_v0_24__pxrReserved__::GfMatrix4d", ptr %23, i32 0, i32 0
  %25 = call noundef ptr @_ZNK32pxrInternal_v0_24__pxrReserved__12GfMatrixDataIdLi4ELi4EEixEi(ptr noundef nonnull align 8 dereferenceable(128) %24, i32 noundef 0)
  %26 = getelementptr inbounds double, ptr %25, i64 1
  %27 = load double, ptr %26, align 8
  %28 = fcmp oeq double %22, %27
  br i1 %28, label %29, label %197

29:                                               ; preds = %17
  %30 = getelementptr inbounds nuw %"class.pxrInternal_v0_24__pxrReserved__::GfMatrix4f", ptr %5, i32 0, i32 0
  %31 = call noundef ptr @_ZNK32pxrInternal_v0_24__pxrReserved__12GfMatrixDataIfLi4ELi4EEixEi(ptr noundef nonnull align 4 dereferenceable(64) %30, i32 noundef 0)
  %32 = getelementptr inbounds float, ptr %31, i64 2
  %33 = load float, ptr %32, align 4
  %34 = fpext float %33 to double
  %35 = load ptr, ptr %4, align 8
  %36 = getelementptr inbounds nuw %"class.pxrInternal_v0_24__pxrReserved__::GfMatrix4d", ptr %35, i32 0, i32 0
  %37 = call noundef ptr @_ZNK32pxrInternal_v0_24__pxrReserved__12GfMatrixDataIdLi4ELi4EEixEi(ptr noundef nonnull align 8 dereferenceable(128) %36, i32 noundef 0)
  %38 = getelementptr inbounds double, ptr %37, i64 2
  %39 = load double, ptr %38, align 8
  %40 = fcmp oeq double %34, %39
  br i1 %40, label %41, label %197

41:                                               ; preds = %29
  %42 = getelementptr inbounds nuw %"class.pxrInternal_v0_24__pxrReserved__::GfMatrix4f", ptr %5, i32 0, i32 0
  %43 = call noundef ptr @_ZNK32pxrInternal_v0_24__pxrReserved__12GfMatrixDataIfLi4ELi4EEixEi(ptr noundef nonnull align 4 dereferenceable(64) %42, i32 noundef 0)
  %44 = getelementptr inbounds float, ptr %43, i64 3
  %45 = load float, ptr %44, align 4
  %46 = fpext float %45 to double
  %47 = load ptr, ptr %4, align 8
  %48 = getelementptr inbounds nuw %"class.pxrInternal_v0_24__pxrReserved__::GfMatrix4d", ptr %47, i32 0, i32 0
  %49 = call noundef ptr @_ZNK32pxrInternal_v0_24__pxrReserved__12GfMatrixDataIdLi4ELi4EEixEi(ptr noundef nonnull align 8 dereferenceable(128) %48, i32 noundef 0)
  %50 = getelementptr inbounds double, ptr %49, i64 3
  %51 = load double, ptr %50, align 8
  %52 = fcmp oeq double %46, %51
  br i1 %52, label %53, label %197

53:                                               ; preds = %41
  %54 = getelementptr inbounds nuw %"class.pxrInternal_v0_24__pxrReserved__::GfMatrix4f", ptr %5, i32 0, i32 0
  %55 = call noundef ptr @_ZNK32pxrInternal_v0_24__pxrReserved__12GfMatrixDataIfLi4ELi4EEixEi(ptr noundef nonnull align 4 dereferenceable(64) %54, i32 noundef 1)
  %56 = getelementptr inbounds float, ptr %55, i64 0
  %57 = load float, ptr %56, align 4
  %58 = fpext float %57 to double
  %59 = load ptr, ptr %4, align 8
  %60 = getelementptr inbounds nuw %"class.pxrInternal_v0_24__pxrReserved__::GfMatrix4d", ptr %59, i32 0, i32 0
  %61 = call noundef ptr @_ZNK32pxrInternal_v0_24__pxrReserved__12GfMatrixDataIdLi4ELi4EEixEi(ptr noundef nonnull align 8 dereferenceable(128) %60, i32 noundef 1)
  %62 = getelementptr inbounds double, ptr %61, i64 0
  %63 = load double, ptr %62, align 8
  %64 = fcmp oeq double %58, %63
  br i1 %64, label %65, label %197

65:                                               ; preds = %53
  %66 = getelementptr inbounds nuw %"class.pxrInternal_v0_24__pxrReserved__::GfMatrix4f", ptr %5, i32 0, i32 0
  %67 = call noundef ptr @_ZNK32pxrInternal_v0_24__pxrReserved__12GfMatrixDataIfLi4ELi4EEixEi(ptr noundef nonnull align 4 dereferenceable(64) %66, i32 noundef 1)
  %68 = getelementptr inbounds float, ptr %67, i64 1
  %69 = load float, ptr %68, align 4
  %70 = fpext float %69 to double
  %71 = load ptr, ptr %4, align 8
  %72 = getelementptr inbounds nuw %"class.pxrInternal_v0_24__pxrReserved__::GfMatrix4d", ptr %71, i32 0, i32 0
  %73 = call noundef ptr @_ZNK32pxrInternal_v0_24__pxrReserved__12GfMatrixDataIdLi4ELi4EEixEi(ptr noundef nonnull align 8 dereferenceable(128) %72, i32 noundef 1)
  %74 = getelementptr inbounds double, ptr %73, i64 1
  %75 = load double, ptr %74, align 8
  %76 = fcmp oeq double %70, %75
  br i1 %76, label %77, label %197

77:                                               ; preds = %65
  %78 = getelementptr inbounds nuw %"class.pxrInternal_v0_24__pxrReserved__::GfMatrix4f", ptr %5, i32 0, i32 0
  %79 = call noundef ptr @_ZNK32pxrInternal_v0_24__pxrReserved__12GfMatrixDataIfLi4ELi4EEixEi(ptr noundef nonnull align 4 dereferenceable(64) %78, i32 noundef 1)
  %80 = getelementptr inbounds float, ptr %79, i64 2
  %81 = load float, ptr %80, align 4
  %82 = fpext float %81 to double
  %83 = load ptr, ptr %4, align 8
  %84 = getelementptr inbounds nuw %"class.pxrInternal_v0_24__pxrReserved__::GfMatrix4d", ptr %83, i32 0, i32 0
  %85 = call noundef ptr @_ZNK32pxrInternal_v0_24__pxrReserved__12GfMatrixDataIdLi4ELi4EEixEi(ptr noundef nonnull align 8 dereferenceable(128) %84, i32 noundef 1)
  %86 = getelementptr inbounds double, ptr %85, i64 2
  %87 = load double, ptr %86, align 8
  %88 = fcmp oeq double %82, %87
  br i1 %88, label %89, label %197

89:                                               ; preds = %77
  %90 = getelementptr inbounds nuw %"class.pxrInternal_v0_24__pxrReserved__::GfMatrix4f", ptr %5, i32 0, i32 0
  %91 = call noundef ptr @_ZNK32pxrInternal_v0_24__pxrReserved__12GfMatrixDataIfLi4ELi4EEixEi(ptr noundef nonnull align 4 dereferenceable(64) %90, i32 noundef 1)
  %92 = getelementptr inbounds float, ptr %91, i64 3
  %93 = load float, ptr %92, align 4
  %94 = fpext float %93 to double
  %95 = load ptr, ptr %4, align 8
  %96 = getelementptr inbounds nuw %"class.pxrInternal_v0_24__pxrReserved__::GfMatrix4d", ptr %95, i32 0, i32 0
  %97 = call noundef ptr @_ZNK32pxrInternal_v0_24__pxrReserved__12GfMatrixDataIdLi4ELi4EEixEi(ptr noundef nonnull align 8 dereferenceable(128) %96, i32 noundef 1)
  %98 = getelementptr inbounds double, ptr %97, i64 3
  %99 = load double, ptr %98, align 8
  %100 = fcmp oeq double %94, %99
  br i1 %100, label %101, label %197

101:                                              ; preds = %89
  %102 = getelementptr inbounds nuw %"class.pxrInternal_v0_24__pxrReserved__::GfMatrix4f", ptr %5, i32 0, i32 0
  %103 = call noundef ptr @_ZNK32pxrInternal_v0_24__pxrReserved__12GfMatrixDataIfLi4ELi4EEixEi(ptr noundef nonnull align 4 dereferenceable(64) %102, i32 noundef 2)
  %104 = getelementptr inbounds float, ptr %103, i64 0
  %105 = load float, ptr %104, align 4
  %106 = fpext float %105 to double
  %107 = load ptr, ptr %4, align 8
  %108 = getelementptr inbounds nuw %"class.pxrInternal_v0_24__pxrReserved__::GfMatrix4d", ptr %107, i32 0, i32 0
  %109 = call noundef ptr @_ZNK32pxrInternal_v0_24__pxrReserved__12GfMatrixDataIdLi4ELi4EEixEi(ptr noundef nonnull align 8 dereferenceable(128) %108, i32 noundef 2)
  %110 = getelementptr inbounds double, ptr %109, i64 0
  %111 = load double, ptr %110, align 8
  %112 = fcmp oeq double %106, %111
  br i1 %112, label %113, label %197

113:                                              ; preds = %101
  %114 = getelementptr inbounds nuw %"class.pxrInternal_v0_24__pxrReserved__::GfMatrix4f", ptr %5, i32 0, i32 0
  %115 = call noundef ptr @_ZNK32pxrInternal_v0_24__pxrReserved__12GfMatrixDataIfLi4ELi4EEixEi(ptr noundef nonnull align 4 dereferenceable(64) %114, i32 noundef 2)
  %116 = getelementptr inbounds float, ptr %115, i64 1
  %117 = load float, ptr %116, align 4
  %118 = fpext float %117 to double
  %119 = load ptr, ptr %4, align 8
  %120 = getelementptr inbounds nuw %"class.pxrInternal_v0_24__pxrReserved__::GfMatrix4d", ptr %119, i32 0, i32 0
  %121 = call noundef ptr @_ZNK32pxrInternal_v0_24__pxrReserved__12GfMatrixDataIdLi4ELi4EEixEi(ptr noundef nonnull align 8 dereferenceable(128) %120, i32 noundef 2)
  %122 = getelementptr inbounds double, ptr %121, i64 1
  %123 = load double, ptr %122, align 8
  %124 = fcmp oeq double %118, %123
  br i1 %124, label %125, label %197

125:                                              ; preds = %113
  %126 = getelementptr inbounds nuw %"class.pxrInternal_v0_24__pxrReserved__::GfMatrix4f", ptr %5, i32 0, i32 0
  %127 = call noundef ptr @_ZNK32pxrInternal_v0_24__pxrReserved__12GfMatrixDataIfLi4ELi4EEixEi(ptr noundef nonnull align 4 dereferenceable(64) %126, i32 noundef 2)
  %128 = getelementptr inbounds float, ptr %127, i64 2
  %129 = load float, ptr %128, align 4
  %130 = fpext float %129 to double
  %131 = load ptr, ptr %4, align 8
  %132 = getelementptr inbounds nuw %"class.pxrInternal_v0_24__pxrReserved__::GfMatrix4d", ptr %131, i32 0, i32 0
  %133 = call noundef ptr @_ZNK32pxrInternal_v0_24__pxrReserved__12GfMatrixDataIdLi4ELi4EEixEi(ptr noundef nonnull align 8 dereferenceable(128) %132, i32 noundef 2)
  %134 = getelementptr inbounds double, ptr %133, i64 2
  %135 = load double, ptr %134, align 8
  %136 = fcmp oeq double %130, %135
  br i1 %136, label %137, label %197

137:                                              ; preds = %125
  %138 = getelementptr inbounds nuw %"class.pxrInternal_v0_24__pxrReserved__::GfMatrix4f", ptr %5, i32 0, i32 0
  %139 = call noundef ptr @_ZNK32pxrInternal_v0_24__pxrReserved__12GfMatrixDataIfLi4ELi4EEixEi(ptr noundef nonnull align 4 dereferenceable(64) %138, i32 noundef 2)
  %140 = getelementptr inbounds float, ptr %139, i64 3
  %141 = load float, ptr %140, align 4
  %142 = fpext float %141 to double
  %143 = load ptr, ptr %4, align 8
  %144 = getelementptr inbounds nuw %"class.pxrInternal_v0_24__pxrReserved__::GfMatrix4d", ptr %143, i32 0, i32 0
  %145 = call noundef ptr @_ZNK32pxrInternal_v0_24__pxrReserved__12GfMatrixDataIdLi4ELi4EEixEi(ptr noundef nonnull align 8 dereferenceable(128) %144, i32 noundef 2)
  %146 = getelementptr inbounds double, ptr %145, i64 3
  %147 = load double, ptr %146, align 8
  %148 = fcmp oeq double %142, %147
  br i1 %148, label %149, label %197

149:                                              ; preds = %137
  %150 = getelementptr inbounds nuw %"class.pxrInternal_v0_24__pxrReserved__::GfMatrix4f", ptr %5, i32 0, i32 0
  %151 = call noundef ptr @_ZNK32pxrInternal_v0_24__pxrReserved__12GfMatrixDataIfLi4ELi4EEixEi(ptr noundef nonnull align 4 dereferenceable(64) %150, i32 noundef 3)
  %152 = getelementptr inbounds float, ptr %151, i64 0
  %153 = load float, ptr %152, align 4
  %154 = fpext float %153 to double
  %155 = load ptr, ptr %4, align 8
  %156 = getelementptr inbounds nuw %"class.pxrInternal_v0_24__pxrReserved__::GfMatrix4d", ptr %155, i32 0, i32 0
  %157 = call noundef ptr @_ZNK32pxrInternal_v0_24__pxrReserved__12GfMatrixDataIdLi4ELi4EEixEi(ptr noundef nonnull align 8 dereferenceable(128) %156, i32 noundef 3)
  %158 = getelementptr inbounds double, ptr %157, i64 0
  %159 = load double, ptr %158, align 8
  %160 = fcmp oeq double %154, %159
  br i1 %160, label %161, label %197

161:                                              ; preds = %149
  %162 = getelementptr inbounds nuw %"class.pxrInternal_v0_24__pxrReserved__::GfMatrix4f", ptr %5, i32 0, i32 0
  %163 = call noundef ptr @_ZNK32pxrInternal_v0_24__pxrReserved__12GfMatrixDataIfLi4ELi4EEixEi(ptr noundef nonnull align 4 dereferenceable(64) %162, i32 noundef 3)
  %164 = getelementptr inbounds float, ptr %163, i64 1
  %165 = load float, ptr %164, align 4
  %166 = fpext float %165 to double
  %167 = load ptr, ptr %4, align 8
  %168 = getelementptr inbounds nuw %"class.pxrInternal_v0_24__pxrReserved__::GfMatrix4d", ptr %167, i32 0, i32 0
  %169 = call noundef ptr @_ZNK32pxrInternal_v0_24__pxrReserved__12GfMatrixDataIdLi4ELi4EEixEi(ptr noundef nonnull align 8 dereferenceable(128) %168, i32 noundef 3)
  %170 = getelementptr inbounds double, ptr %169, i64 1
  %171 = load double, ptr %170, align 8
  %172 = fcmp oeq double %166, %171
  br i1 %172, label %173, label %197

173:                                              ; preds = %161
  %174 = getelementptr inbounds nuw %"class.pxrInternal_v0_24__pxrReserved__::GfMatrix4f", ptr %5, i32 0, i32 0
  %175 = call noundef ptr @_ZNK32pxrInternal_v0_24__pxrReserved__12GfMatrixDataIfLi4ELi4EEixEi(ptr noundef nonnull align 4 dereferenceable(64) %174, i32 noundef 3)
  %176 = getelementptr inbounds float, ptr %175, i64 2
  %177 = load float, ptr %176, align 4
  %178 = fpext float %177 to double
  %179 = load ptr, ptr %4, align 8
  %180 = getelementptr inbounds nuw %"class.pxrInternal_v0_24__pxrReserved__::GfMatrix4d", ptr %179, i32 0, i32 0
  %181 = call noundef ptr @_ZNK32pxrInternal_v0_24__pxrReserved__12GfMatrixDataIdLi4ELi4EEixEi(ptr noundef nonnull align 8 dereferenceable(128) %180, i32 noundef 3)
  %182 = getelementptr inbounds double, ptr %181, i64 2
  %183 = load double, ptr %182, align 8
  %184 = fcmp oeq double %178, %183
  br i1 %184, label %185, label %197

185:                                              ; preds = %173
  %186 = getelementptr inbounds nuw %"class.pxrInternal_v0_24__pxrReserved__::GfMatrix4f", ptr %5, i32 0, i32 0
  %187 = call noundef ptr @_ZNK32pxrInternal_v0_24__pxrReserved__12GfMatrixDataIfLi4ELi4EEixEi(ptr noundef nonnull align 4 dereferenceable(64) %186, i32 noundef 3)
  %188 = getelementptr inbounds float, ptr %187, i64 3
  %189 = load float, ptr %188, align 4
  %190 = fpext float %189 to double
  %191 = load ptr, ptr %4, align 8
  %192 = getelementptr inbounds nuw %"class.pxrInternal_v0_24__pxrReserved__::GfMatrix4d", ptr %191, i32 0, i32 0
  %193 = call noundef ptr @_ZNK32pxrInternal_v0_24__pxrReserved__12GfMatrixDataIdLi4ELi4EEixEi(ptr noundef nonnull align 8 dereferenceable(128) %192, i32 noundef 3)
  %194 = getelementptr inbounds double, ptr %193, i64 3
  %195 = load double, ptr %194, align 8
  %196 = fcmp oeq double %190, %195
  br label %197

197:                                              ; preds = %185, %173, %161, %149, %137, %125, %113, %101, %89, %77, %65, %53, %41, %29, %17, %2
  %198 = phi i1 [ false, %173 ], [ false, %161 ], [ false, %149 ], [ false, %137 ], [ false, %125 ], [ false, %113 ], [ false, %101 ], [ false, %89 ], [ false, %77 ], [ false, %65 ], [ false, %53 ], [ false, %41 ], [ false, %29 ], [ false, %17 ], [ false, %2 ], [ %196, %185 ]
  ret i1 %198
}