; Function Attrs: mustprogress nofree norecurse nosync nounwind willreturn memory(argmem: read) uwtable
define noundef zeroext i1 @_ZNK32pxrInternal_v0_24__pxrReserved__10GfMatrix4feqERKNS_10GfMatrix4dE(ptr noundef nonnull readonly align 4 captures(none) dereferenceable(64) %0, ptr noundef nonnull readonly align 8 captures(none) dereferenceable(128) %1) local_unnamed_addr #6 align 2 {
  %3 = load float, ptr %0, align 4
  %4 = fpext float %3 to double
  %5 = load double, ptr %1, align 8
  %6 = fcmp oeq double %5, %4
  br i1 %6, label %7, label %112

7:                                                ; preds = %2
  %8 = getelementptr inbounds nuw i8, ptr %0, i64 4
  %9 = load float, ptr %8, align 4
  %10 = fpext float %9 to double
  %11 = getelementptr inbounds nuw i8, ptr %1, i64 8
  %12 = load double, ptr %11, align 8
  %13 = fcmp oeq double %12, %10
  br i1 %13, label %14, label %112

14:                                               ; preds = %7
  %15 = getelementptr inbounds nuw i8, ptr %0, i64 8
  %16 = load float, ptr %15, align 4
  %17 = fpext float %16 to double
  %18 = getelementptr inbounds nuw i8, ptr %1, i64 16
  %19 = load double, ptr %18, align 8
  %20 = fcmp oeq double %19, %17
  br i1 %20, label %21, label %112

21:                                               ; preds = %14
  %22 = getelementptr inbounds nuw i8, ptr %0, i64 12
  %23 = load float, ptr %22, align 4
  %24 = fpext float %23 to double
  %25 = getelementptr inbounds nuw i8, ptr %1, i64 24
  %26 = load double, ptr %25, align 8
  %27 = fcmp oeq double %26, %24
  br i1 %27, label %28, label %112

28:                                               ; preds = %21
  %29 = getelementptr inbounds nuw i8, ptr %0, i64 16
  %30 = load float, ptr %29, align 4
  %31 = fpext float %30 to double
  %32 = getelementptr inbounds nuw i8, ptr %1, i64 32
  %33 = load double, ptr %32, align 8
  %34 = fcmp oeq double %33, %31
  br i1 %34, label %35, label %112

35:                                               ; preds = %28
  %36 = getelementptr inbounds nuw i8, ptr %0, i64 20
  %37 = load float, ptr %36, align 4
  %38 = fpext float %37 to double
  %39 = getelementptr inbounds nuw i8, ptr %1, i64 40
  %40 = load double, ptr %39, align 8
  %41 = fcmp oeq double %40, %38
  br i1 %41, label %42, label %112

42:                                               ; preds = %35
  %43 = getelementptr inbounds nuw i8, ptr %0, i64 24
  %44 = load float, ptr %43, align 4
  %45 = fpext float %44 to double
  %46 = getelementptr inbounds nuw i8, ptr %1, i64 48
  %47 = load double, ptr %46, align 8
  %48 = fcmp oeq double %47, %45
  br i1 %48, label %49, label %112

49:                                               ; preds = %42
  %50 = getelementptr inbounds nuw i8, ptr %0, i64 28
  %51 = load float, ptr %50, align 4
  %52 = fpext float %51 to double
  %53 = getelementptr inbounds nuw i8, ptr %1, i64 56
  %54 = load double, ptr %53, align 8
  %55 = fcmp oeq double %54, %52
  br i1 %55, label %56, label %112

56:                                               ; preds = %49
  %57 = getelementptr inbounds nuw i8, ptr %0, i64 32
  %58 = load float, ptr %57, align 4
  %59 = fpext float %58 to double
  %60 = getelementptr inbounds nuw i8, ptr %1, i64 64
  %61 = load double, ptr %60, align 8
  %62 = fcmp oeq double %61, %59
  br i1 %62, label %63, label %112

63:                                               ; preds = %56
  %64 = getelementptr inbounds nuw i8, ptr %0, i64 36
  %65 = load float, ptr %64, align 4
  %66 = fpext float %65 to double
  %67 = getelementptr inbounds nuw i8, ptr %1, i64 72
  %68 = load double, ptr %67, align 8
  %69 = fcmp oeq double %68, %66
  br i1 %69, label %70, label %112

70:                                               ; preds = %63
  %71 = getelementptr inbounds nuw i8, ptr %0, i64 40
  %72 = load float, ptr %71, align 4
  %73 = fpext float %72 to double
  %74 = getelementptr inbounds nuw i8, ptr %1, i64 80
  %75 = load double, ptr %74, align 8
  %76 = fcmp oeq double %75, %73
  br i1 %76, label %77, label %112

77:                                               ; preds = %70
  %78 = getelementptr inbounds nuw i8, ptr %0, i64 44
  %79 = load float, ptr %78, align 4
  %80 = fpext float %79 to double
  %81 = getelementptr inbounds nuw i8, ptr %1, i64 88
  %82 = load double, ptr %81, align 8
  %83 = fcmp oeq double %82, %80
  br i1 %83, label %84, label %112

84:                                               ; preds = %77
  %85 = getelementptr inbounds nuw i8, ptr %0, i64 48
  %86 = load float, ptr %85, align 4
  %87 = fpext float %86 to double
  %88 = getelementptr inbounds nuw i8, ptr %1, i64 96
  %89 = load double, ptr %88, align 8
  %90 = fcmp oeq double %89, %87
  br i1 %90, label %91, label %112

91:                                               ; preds = %84
  %92 = getelementptr inbounds nuw i8, ptr %0, i64 52
  %93 = load float, ptr %92, align 4
  %94 = fpext float %93 to double
  %95 = getelementptr inbounds nuw i8, ptr %1, i64 104
  %96 = load double, ptr %95, align 8
  %97 = fcmp oeq double %96, %94
  br i1 %97, label %98, label %112

98:                                               ; preds = %91
  %99 = getelementptr inbounds nuw i8, ptr %0, i64 56
  %100 = load float, ptr %99, align 4
  %101 = fpext float %100 to double
  %102 = getelementptr inbounds nuw i8, ptr %1, i64 112
  %103 = load double, ptr %102, align 8
  %104 = fcmp oeq double %103, %101
  br i1 %104, label %105, label %112

105:                                              ; preds = %98
  %106 = getelementptr inbounds nuw i8, ptr %0, i64 60
  %107 = load float, ptr %106, align 4
  %108 = fpext float %107 to double
  %109 = getelementptr inbounds nuw i8, ptr %1, i64 120
  %110 = load double, ptr %109, align 8
  %111 = fcmp oeq double %110, %108
  br label %112

112:                                              ; preds = %105, %98, %91, %84, %77, %70, %63, %56, %49, %42, %35, %28, %21, %14, %7, %2
  %113 = phi i1 [ false, %98 ], [ false, %91 ], [ false, %84 ], [ false, %77 ], [ false, %70 ], [ false, %63 ], [ false, %56 ], [ false, %49 ], [ false, %42 ], [ false, %35 ], [ false, %28 ], [ false, %21 ], [ false, %14 ], [ false, %7 ], [ false, %2 ], [ %111, %105 ]
  ret i1 %113
}